target datalayout = "e-m:e-p270:32:32-p271:32:32-p272:64:64-i64:64-i128:128-f80:128-n8:16:32:64-S128"
target triple = "x86_64-pc-linux-gnu"

%struct.pg_compress_specification = type { i32, i32, i32, i32, i8, ptr }

; Function Attrs: nounwind uwtable
define dso_local ptr @InitCompressFileHandle(ptr noundef byval(%struct.pg_compress_specification) align 8 %0) #0 {
  %2 = alloca ptr, align 8
  call void @llvm.lifetime.start.p0(i64 8, ptr %2) #7
  %3 = call ptr @pg_malloc0(i64 noundef 112)
  store ptr %3, ptr %2, align 8
  %4 = getelementptr inbounds nuw %struct.pg_compress_specification, ptr %0, i32 0, i32 0
  %5 = load i32, ptr %4, align 8
  %6 = icmp eq i32 %5, 0
  br i1 %6, label %7, label %9

7:                                                ; preds = %1
  %8 = load ptr, ptr %2, align 8
  call void @InitCompressFileHandleNone(ptr noundef %8, ptr noundef byval(%struct.pg_compress_specification) align 8 %0)
  br label %30

9:                                                ; preds = %1
  %10 = getelementptr inbounds nuw %struct.pg_compress_specification, ptr %0, i32 0, i32 0
  %11 = load i32, ptr %10, align 8
  %12 = icmp eq i32 %11, 1
  br i1 %12, label %13, label %15

13:                                               ; preds = %9
  %14 = load ptr, ptr %2, align 8
  call void @InitCompressFileHandleGzip(ptr noundef %14, ptr noundef byval(%struct.pg_compress_specification) align 8 %0)
  br label %29

15:                                               ; preds = %9
  %16 = getelementptr inbounds nuw %struct.pg_compress_specification, ptr %0, i32 0, i32 0
  %17 = load i32, ptr %16, align 8
  %18 = icmp eq i32 %17, 2
  br i1 %18, label %19, label %21

19:                                               ; preds = %15
  %20 = load ptr, ptr %2, align 8
  call void @InitCompressFileHandleLZ4(ptr noundef %20, ptr noundef byval(%struct.pg_compress_specification) align 8 %0)
  br label %28

21:                                               ; preds = %15
  %22 = getelementptr inbounds nuw %struct.pg_compress_specification, ptr %0, i32 0, i32 0
  %23 = load i32, ptr %22, align 8
  %24 = icmp eq i32 %23, 3
  br i1 %24, label %25, label %27

25:                                               ; preds = %21
  %26 = load ptr, ptr %2, align 8
  call void @InitCompressFileHandleZstd(ptr noundef %26, ptr noundef byval(%struct.pg_compress_specification) align 8 %0)
  br label %27

27:                                               ; preds = %25, %21
  br label %28

28:                                               ; preds = %27, %19
  br label %29

29:                                               ; preds = %28, %13
  br label %30

30:                                               ; preds = %29, %7
  %31 = load ptr, ptr %2, align 8
  call void @llvm.lifetime.end.p0(i64 8, ptr %2) #7
  ret ptr %31
}