; Function Attrs: nounwind uwtable
define dso_local ptr @InitCompressFileHandle(ptr noundef readonly byval(%struct.pg_compress_specification) align 8 captures(none) %0) local_unnamed_addr #0 {
  %2 = tail call ptr @pg_malloc0(i64 noundef 112) #9
  %3 = load i32, ptr %0, align 8
  switch i32 %3, label %8 [
    i32 0, label %4
    i32 1, label %5
    i32 2, label %6
    i32 3, label %7
  ]

4:                                                ; preds = %1
  tail call void @InitCompressFileHandleNone(ptr noundef %2, ptr noundef nonnull byval(%struct.pg_compress_specification) align 8 %0) #9
  br label %8

5:                                                ; preds = %1
  tail call void @InitCompressFileHandleGzip(ptr noundef %2, ptr noundef nonnull byval(%struct.pg_compress_specification) align 8 %0) #9
  br label %8

6:                                                ; preds = %1
  tail call void @InitCompressFileHandleLZ4(ptr noundef %2, ptr noundef nonnull byval(%struct.pg_compress_specification) align 8 %0) #9
  br label %8

7:                                                ; preds = %1
  tail call void @InitCompressFileHandleZstd(ptr noundef %2, ptr noundef nonnull byval(%struct.pg_compress_specification) align 8 %0) #9
  br label %8

8:                                                ; preds = %1, %5, %7, %6, %4
  ret ptr %2
}